target datalayout = "e-m:e-p270:32:32-p271:32:32-p272:64:64-i64:64-i128:128-f80:128-n8:16:32:64-S128"
target triple = "x86_64-pc-linux-gnu"

%struct.config_alias_data = type { ptr, ptr, ptr }

@the_repository = external global ptr, align 8

; Function Attrs: nounwind uwtable
define dso_local void @list_aliases(ptr noundef %0) #0 {
  %2 = alloca ptr, align 8
  %3 = alloca %struct.config_alias_data, align 8
  store ptr %0, ptr %2, align 8, !tbaa !21
  call void @llvm.lifetime.start.p0(i64 24, ptr %3) #7
  %4 = getelementptr inbounds nuw %struct.config_alias_data, ptr %3, i32 0, i32 0
  store ptr null, ptr %4, align 8, !tbaa !9
  %5 = getelementptr inbounds nuw %struct.config_alias_data, ptr %3, i32 0, i32 1
  store ptr null, ptr %5, align 8, !tbaa !12
  %6 = getelementptr inbounds nuw %struct.config_alias_data, ptr %3, i32 0, i32 2
  %7 = load ptr, ptr %2, align 8, !tbaa !21
  store ptr %7, ptr %6, align 8, !tbaa !13
  %8 = load ptr, ptr @the_repository, align 8, !tbaa !14
  call void @read_early_config(ptr noundef %8, ptr noundef @config_alias_cb, ptr noundef %3)
  call void @llvm.lifetime.end.p0(i64 24, ptr %3) #7
  ret void
}